target datalayout = "e-m:e-p270:32:32-p271:32:32-p272:64:64-i64:64-i128:128-f80:128-n8:16:32:64-S128"
target triple = "x86_64-pc-linux-gnu"

%struct.SurfaceDataRasInfo = type { %struct.SurfaceDataBounds, ptr, i32, i32, i32, i32, ptr, ptr, ptr, ptr, ptr, ptr, i32, %union.anon.0 }
%struct.SurfaceDataBounds = type { i32, i32, i32, i32 }
%union.anon.0 = type { ptr, [56 x i8] }

; Function Attrs: nounwind uwtable
define hidden void @ByteGrayToUshort565RgbScaleConvert(ptr noundef %0, ptr noundef %1, i32 noundef %2, i32 noundef %3, i32 noundef %4, i32 noundef %5, i32 noundef %6, i32 noundef %7, i32 noundef %8, ptr noundef %9, ptr noundef %10, ptr noundef %11, ptr noundef %12) #1 {
  %14 = alloca ptr, align 8
  %15 = alloca ptr, align 8
  %16 = alloca i32, align 4
  %17 = alloca i32, align 4
  %18 = alloca i32, align 4
  %19 = alloca i32, align 4
  %20 = alloca i32, align 4
  %21 = alloca i32, align 4
  %22 = alloca i32, align 4
  %23 = alloca ptr, align 8
  %24 = alloca ptr, align 8
  %25 = alloca ptr, align 8
  %26 = alloca ptr, align 8
  %27 = alloca ptr, align 8
  %28 = alloca ptr, align 8
  %29 = alloca i32, align 4
  %30 = alloca i32, align 4
  %31 = alloca i32, align 4
  %32 = alloca i32, align 4
  %33 = alloca i32, align 4
  %34 = alloca i32, align 4
  %35 = alloca i32, align 4
  %36 = alloca i32, align 4
  store ptr %0, ptr %14, align 8
  store ptr %1, ptr %15, align 8
  store i32 %2, ptr %16, align 4
  store i32 %3, ptr %17, align 4
  store i32 %4, ptr %18, align 4
  store i32 %5, ptr %19, align 4
  store i32 %6, ptr %20, align 4
  store i32 %7, ptr %21, align 4
  store i32 %8, ptr %22, align 4
  store ptr %9, ptr %23, align 8
  store ptr %10, ptr %24, align 8
  store ptr %11, ptr %25, align 8
  store ptr %12, ptr %26, align 8
  br label %37

37:                                               ; preds = %13
  %38 = load ptr, ptr %15, align 8
  store ptr %38, ptr %28, align 8
  %39 = load ptr, ptr %23, align 8
  %40 = getelementptr inbounds %struct.SurfaceDataRasInfo, ptr %39, i32 0, i32 4
  %41 = load i32, ptr %40, align 8
  store i32 %41, ptr %29, align 4
  %42 = load ptr, ptr %24, align 8
  %43 = getelementptr inbounds %struct.SurfaceDataRasInfo, ptr %42, i32 0, i32 4
  %44 = load i32, ptr %43, align 8
  store i32 %44, ptr %30, align 4
  %45 = load i32, ptr %16, align 4
  %46 = mul i32 %45, 2
  %47 = load i32, ptr %30, align 4
  %48 = sub i32 %47, %46
  store i32 %48, ptr %30, align 4
  br label %49

49:                                               ; preds = %110, %37
  %50 = load i32, ptr %16, align 4
  store i32 %50, ptr %31, align 4
  %51 = load i32, ptr %18, align 4
  store i32 %51, ptr %32, align 4
  %52 = load ptr, ptr %14, align 8
  %53 = ptrtoint ptr %52 to i64
  %54 = load i32, ptr %19, align 4
  %55 = load i32, ptr %22, align 4
  %56 = ashr i32 %54, %55
  %57 = sext i32 %56 to i64
  %58 = load i32, ptr %29, align 4
  %59 = sext i32 %58 to i64
  %60 = mul nsw i64 %57, %59
  %61 = add nsw i64 %53, %60
  %62 = inttoptr i64 %61 to ptr
  store ptr %62, ptr %27, align 8
  br label %63

63:                                               ; preds = %96, %49
  %64 = load i32, ptr %32, align 4
  %65 = load i32, ptr %22, align 4
  %66 = ashr i32 %64, %65
  store i32 %66, ptr %33, align 4
  br label %67

67:                                               ; preds = %63
  %68 = load ptr, ptr %27, align 8
  %69 = load i32, ptr %33, align 4
  %70 = sext i32 %69 to i64
  %71 = getelementptr inbounds i8, ptr %68, i64 %70
  %72 = load i8, ptr %71, align 1
  %73 = zext i8 %72 to i32
  store i32 %73, ptr %36, align 4
  store i32 %73, ptr %35, align 4
  store i32 %73, ptr %34, align 4
  %74 = load i32, ptr %34, align 4
  %75 = ashr i32 %74, 3
  %76 = shl i32 %75, 11
  %77 = load i32, ptr %35, align 4
  %78 = ashr i32 %77, 2
  %79 = shl i32 %78, 5
  %80 = or i32 %76, %79
  %81 = load i32, ptr %36, align 4
  %82 = ashr i32 %81, 3
  %83 = shl i32 %82, 0
  %84 = or i32 %80, %83
  %85 = trunc i32 %84 to i16
  %86 = load ptr, ptr %28, align 8
  %87 = getelementptr inbounds i16, ptr %86, i64 0
  store i16 %85, ptr %87, align 2
  br label %88

88:                                               ; preds = %67
  %89 = load ptr, ptr %28, align 8
  %90 = ptrtoint ptr %89 to i64
  %91 = add nsw i64 %90, 2
  %92 = inttoptr i64 %91 to ptr
  store ptr %92, ptr %28, align 8
  %93 = load i32, ptr %20, align 4
  %94 = load i32, ptr %32, align 4
  %95 = add nsw i32 %94, %93
  store i32 %95, ptr %32, align 4
  br label %96

96:                                               ; preds = %88
  %97 = load i32, ptr %31, align 4
  %98 = add i32 %97, -1
  store i32 %98, ptr %31, align 4
  %99 = icmp ugt i32 %98, 0
  br i1 %99, label %63, label %100, !llvm.loop !25

100:                                              ; preds = %96
  %101 = load ptr, ptr %28, align 8
  %102 = ptrtoint ptr %101 to i64
  %103 = load i32, ptr %30, align 4
  %104 = sext i32 %103 to i64
  %105 = add nsw i64 %102, %104
  %106 = inttoptr i64 %105 to ptr
  store ptr %106, ptr %28, align 8
  %107 = load i32, ptr %21, align 4
  %108 = load i32, ptr %19, align 4
  %109 = add nsw i32 %108, %107
  store i32 %109, ptr %19, align 4
  br label %110

110:                                              ; preds = %100
  %111 = load i32, ptr %17, align 4
  %112 = add i32 %111, -1
  store i32 %112, ptr %17, align 4
  %113 = icmp ugt i32 %112, 0
  br i1 %113, label %49, label %114, !llvm.loop !26

114:                                              ; preds = %110
  br label %115

115:                                              ; preds = %114
  ret void
}